; Function Attrs: mustprogress null_pointer_is_valid sspstrong uwtable
define range(i32 0, 50) i32 @_ZNK26EnabledProtocolsProxyModel5flagsERK11QModelIndex(ptr noundef align 8 dereferenceable_or_null(48) %0, ptr noundef align 8 dereferenceable(24) %1) unnamed_addr #4 align 2 {
  %3 = alloca %class.QModelIndex, align 8
  %4 = alloca %class.QModelIndex, align 8
  %5 = load i32, ptr %1, align 8
  %6 = icmp sgt i32 %5, -1
  %7 = getelementptr inbounds nuw i8, ptr %1, i64 4
  %8 = load i32, ptr %7, align 4
  %9 = icmp sgt i32 %8, -1
  %or.cond = select i1 %6, i1 %9, i1 false
  %10 = getelementptr inbounds nuw i8, ptr %1, i64 16
  %11 = load ptr, ptr %10, align 8
  %12 = icmp ne ptr %11, null
  %or.cond10 = select i1 %or.cond, i1 %12, i1 false
  br i1 %or.cond10, label %13, label %_ZNK11QModelIndex7isValidEv.exit.thread

13:                                               ; preds = %2
  call void @llvm.lifetime.start.p0(i64 24, ptr nonnull %3) #28
  %14 = load ptr, ptr %0, align 8
  %15 = getelementptr inbounds nuw i8, ptr %14, i64 400
  %16 = load ptr, ptr %15, align 8
  call void %16(ptr dead_on_unwind nonnull writable sret(%class.QModelIndex) align 8 %3, ptr noundef align 8 dereferenceable_or_null(16) %0, ptr noundef align 8 dereferenceable(24) %1)
  %17 = load i32, ptr %3, align 8
  call void @llvm.lifetime.start.p0(i64 24, ptr nonnull %4) #28
  call void @llvm.experimental.noalias.scope.decl(metadata !64)
  %18 = getelementptr inbounds nuw i8, ptr %3, i64 16
  %19 = load ptr, ptr %18, align 8, !noalias !64
  %.not.i = icmp eq ptr %19, null
  br i1 %.not.i, label %24, label %20

20:                                               ; preds = %13
  %21 = load ptr, ptr %19, align 8, !noalias !64
  %22 = getelementptr inbounds nuw i8, ptr %21, i64 104
  %23 = load ptr, ptr %22, align 8, !noalias !64
  call void %23(ptr dead_on_unwind nonnull writable sret(%class.QModelIndex) align 8 %4, ptr noundef nonnull align 8 dereferenceable_or_null(16) %19, ptr noundef nonnull align 8 dereferenceable(24) dereferenceable_or_null(24) %3)
  br label %_ZNK11QModelIndex6parentEv.exit

24:                                               ; preds = %13
  store i32 -1, ptr %4, align 8, !alias.scope !64
  %25 = getelementptr inbounds nuw i8, ptr %4, i64 4
  store i32 -1, ptr %25, align 4, !alias.scope !64
  %26 = getelementptr inbounds nuw i8, ptr %4, i64 8
  call void @llvm.memset.p0.i64(ptr noundef nonnull align 8 dereferenceable(16) %26, i8 0, i64 16, i1 false), !alias.scope !64
  br label %_ZNK11QModelIndex6parentEv.exit

_ZNK11QModelIndex6parentEv.exit:                  ; preds = %20, %24
  %27 = call noundef zeroext i1 @_ZNK26EnabledProtocolsProxyModel17filterAcceptsSelfEiRK11QModelIndex(ptr noundef align 8 dereferenceable_or_null(48) %0, i32 noundef %17, ptr noundef nonnull align 8 dereferenceable(24) %4)
  call void @llvm.lifetime.end.p0(i64 24, ptr nonnull %4) #28
  %spec.select = select i1 %27, i32 49, i32 0
  call void @llvm.lifetime.end.p0(i64 24, ptr nonnull %3) #28
  br label %_ZNK11QModelIndex7isValidEv.exit.thread

_ZNK11QModelIndex7isValidEv.exit.thread:          ; preds = %2, %_ZNK11QModelIndex6parentEv.exit
  %.sroa.03.0 = phi i32 [ %spec.select, %_ZNK11QModelIndex6parentEv.exit ], [ 0, %2 ]
  ret i32 %.sroa.03.0
}